Certificate:
    Data:
        Version: 1 (0x0)
        Serial Number: 2 (0x2)
        Signature Algorithm: sha256WithRSAEncryption
        Issuer: C=DE, ST=NW, L=Steinfurt, O=FH-Muenster, OU=NPLAB, CN=dtls-ca.nplab.de
        Validity
            Not Before: Jun  5 22:18:18 2022 GMT
            Not After : Oct  6 22:18:18 3021 GMT
        Subject: C=DE, ST=NW, L=Steinfurt, O=FH-Muenster, OU=NPLAB, CN=dtls-client.nplab.de
        Subject Public Key Info:
            Public Key Algorithm: rsaEncryption
                RSA Public-Key: (2048 bit)
                Modulus:
                    00:cd:ed:14:97:cf:2e:66:ff:60:a3:31:e8:ae:1f:
                    96:41:97:fd:0f:61:9e:b5:24:3b:fc:ea:18:b4:7b:
                    ad:df:b0:c1:81:92:70:08:74:e7:6f:d7:d6:33:c8:
                    5b:f9:c4:42:a2:ec:2b:38:d2:ed:02:a1:9d:ec:5f:
                    c5:29:0e:ee:0e:93:3f:cb:af:45:91:f2:79:0d:3a:
                    73:92:b7:c7:6e:48:69:25:ec:04:95:a8:21:e2:20:
                    49:0d:e0:d6:9e:47:d6:f5:d5:b7:82:ce:b7:96:be:
                    68:37:f5:89:ce:5a:ae:95:cc:4e:d7:e8:1c:e5:ef:
                    45:9a:a1:d2:dc:06:3f:7a:2b:ed:57:7e:e0:51:14:
                    c4:fc:c0:1c:69:02:f0:d3:48:e1:58:02:32:22:c0:
                    6c:01:ab:c2:49:36:ef:80:30:4e:c2:ae:4b:08:eb:
                    77:0d:42:ef:a7:54:38:b8:dd:86:1e:e5:1f:d7:fd:
                    86:0b:a3:d6:0c:ba:e8:b1:a2:61:32:94:fc:2f:2e:
                    8b:c3:1f:dd:bc:cd:1b:73:17:0f:03:e3:d0:66:e7:
                    1b:83:93:da:8c:10:81:22:3f:69:e3:a3:af:bc:f9:
                    0e:6f:39:b7:e6:f2:72:90:bd:c9:44:15:61:8e:c6:
                    31:3b:06:59:aa:44:d7:bd:13:fb:91:62:03:21:00:
                    a3:7d
                Exponent: 65537 (0x10001)
    Signature Algorithm: sha256WithRSAEncryption
         a1:ca:38:bf:9d:f4:99:e7:b8:48:45:7e:b1:05:15:b6:b3:31:
         3b:a1:64:a2:f6:83:b6:e5:ce:13:39:12:6d:93:d8:5b:f6:17:
         f4:2b:c2:b1:1d:70:72:34:ce:f4:ba:6c:c0:ab:42:15:8f:ff:
         90:ca:0c:20:05:a5:f7:f2:3a:69:15:df:8b:b5:51:56:79:08:
         71:23:b0:4a:2b:b0:b5:1c:47:6e:88:07:cc:10:26:69:0b:44:
         f1:d2:26:c4:52:f5:20:a9:89:a4:f5:a7:f0:a0:71:1a:08:71:
         69:31:fa:3d:ff:8c:70:3f:1d:2e:40:8f:7f:a8:28:0a:17:86:
         c1:16:9b:4e:94:d6:22:8e:a2:9c:0a:7f:ae:c5:d4:f5:2f:e3:
         20:5a:11:d4:c1:4d:45:09:8c:ab:ce:17:00:e3:d6:6f:7a:31:
         d8:72:df:76:92:f8:0c:a3:14:f5:34:ec:25:0f:62:2f:4f:f0:
         9f:ad:e0:3e:2a:cd:a6:d6:20:bf:94:b2:30:e3:08:70:e3:d9:
         74:a7:ac:fb:9a:84:77:18:02:fb:f8:0a:84:f5:5d:8d:a9:46:
         28:15:51:fc:36:0a:27:87:5a:6a:18:93:ec:d0:17:9c:c1:2f:
         8a:1e:3d:1c:db:cb:56:85:70:93:3d:48:8d:8b:39:03:1e:a7:
         a1:25:2d:3c
-----BEGIN CERTIFICATE-----
MIIDWDCCAkACAQIwDQYJKoZIhvcNAQELBQAwbzELMAkGA1UEBhMCREUxCzAJBgNV
BAgMAk5XMRIwEAYDVQQHDAlTdGVpbmZ1cnQxFDASBgNVBAoMC0ZILU11ZW5zdGVy
MQ4wDAYDVQQLDAVOUExBQjEZMBcGA1UEAwwQZHRscy1jYS5ucGxhYi5kZTAgFw0y
MjA2MDUyMjE4MThaGA8zMDIxMTAwNjIyMTgxOFowczELMAkGA1UEBhMCREUxCzAJ
BgNVBAgMAk5XMRIwEAYDVQQHDAlTdGVpbmZ1cnQxFDASBgNVBAoMC0ZILU11ZW5z
dGVyMQ4wDAYDVQQLDAVOUExBQjEdMBsGA1UEAwwUZHRscy1jbGllbnQubnBsYWIu
ZGUwggEiMA0GCSqGSIb3DQEBAQUAA4IBDwAwggEKAoIBAQDN7RSXzy5m/2CjMeiu
H5ZBl/0PYZ61JDv86hi0e63fsMGBknAIdOdv19YzyFv5xEKi7Cs40u0CoZ3sX8Up
Du4Okz/Lr0WR8nkNOnOSt8duSGkl7ASVqCHiIEkN4NaeR9b11beCzreWvmg39YnO
Wq6VzE7X6Bzl70WaodLcBj96K+1XfuBRFMT8wBxpAvDTSOFYAjIiwGwBq8JJNu+A
ME7CrksI63cNQu+nVDi43YYe5R/X/YYLo9YMuuixomEylPwvLovDH928zRtzFw8D
49Bm5xuDk9qMEIEiP2njo6+8+Q5vObfm8nKQvclEFWGOxjE7BlmqRNe9E/uRYgMh
AKN9AgMBAAEwDQYJKoZIhvcNAQELBQADggEBAKHKOL+d9JnnuEhFfrEFFbazMTuh
ZKL2g7blzhM5Em2T2Fv2F/QrwrEdcHI0zvS6bMCrQhWP/5DKDCAFpffyOmkV34u1
UVZ5CHEjsEorsLUcR26IB8wQJmkLRPHSJsRS9SCpiaT1p/CgcRoIcWkx+j3/jHA/
HS5Aj3+oKAoXhsEWm06U1iKOopwKf67F1PUv4yBaEdTBTUUJjKvOFwDj1m96Mdhy
33aS+AyjFPU07CUPYi9P8J+t4D4qzabWIL+UsjDjCHDj2XSnrPuahHcYAvv4CoT1
XY2pRigVUfw2CieHWmoYk+zQF5zBL4oePRzby1aFcJM9SI2LOQMep6ElLTw=
-----END CERTIFICATE-----
