Certificate:
    Data:
        Version: 1 (0x0)
        Serial Number: 1 (0x1)
        Signature Algorithm: sha256WithRSAEncryption
        Issuer: C=DE, ST=NW, L=Steinfurt, O=FH-Muenster, OU=NPLAB, CN=dtls-ca.nplab.de
        Validity
            Not Before: Jun  5 22:18:16 2022 GMT
            Not After : Oct  6 22:18:16 3021 GMT
        Subject: C=DE, ST=NW, L=Steinfurt, O=FH-Muenster, OU=NPLAB, CN=dtls-server.nplab.de
        Subject Public Key Info:
            Public Key Algorithm: rsaEncryption
                RSA Public-Key: (2048 bit)
                Modulus:
                    00:b9:e8:40:eb:a5:46:5b:cd:eb:f2:f2:92:2b:da:
                    06:38:98:86:08:f7:94:e0:f0:e9:ab:f3:10:7a:d2:
                    d8:4e:7c:03:af:79:26:b2:39:2f:1c:9e:38:3e:ab:
                    91:7f:bb:9d:8b:f1:f7:df:3e:b4:d5:56:af:89:59:
                    83:ab:2b:58:94:83:09:58:af:90:97:1d:90:a5:41:
                    66:10:02:40:74:0f:ae:6d:72:06:78:32:85:2e:95:
                    07:f0:21:5c:69:89:83:27:00:09:63:ac:27:bb:fd:
                    a8:71:58:18:9f:54:14:7e:0a:95:ce:ee:4a:e9:05:
                    b1:5c:2e:fb:4e:51:2c:df:dc:1c:38:34:5f:e2:3d:
                    f9:76:ca:f6:c6:05:2d:87:ca:91:f0:e5:91:93:51:
                    f5:9b:3a:77:9a:06:6f:4a:09:dc:17:1a:96:5a:ca:
                    5f:50:3e:ef:be:66:36:aa:77:f1:78:84:8e:e5:e3:
                    ee:85:a5:63:68:ff:7f:a6:c1:3b:47:74:6a:2d:57:
                    cc:88:b9:b1:f7:cf:4a:fb:28:f0:1c:49:82:57:47:
                    96:8a:f0:99:ab:89:aa:1b:d3:cd:38:08:02:f0:01:
                    1c:a3:22:f6:04:90:cc:dd:8a:cf:55:8f:0a:09:89:
                    84:4a:54:6c:b3:54:ac:dd:db:e8:a9:14:ed:d6:d9:
                    02:9f
                Exponent: 65537 (0x10001)
    Signature Algorithm: sha256WithRSAEncryption
         9c:45:d1:95:0e:76:b1:4a:9e:b0:6d:01:1d:92:4b:f8:85:fd:
         05:80:91:6c:58:c4:f9:87:b2:a2:a6:ee:6f:32:61:ed:99:a0:
         3a:a7:8b:ab:f8:ad:03:d3:05:9a:33:35:b0:54:e6:67:bb:3d:
         ac:02:1b:33:c5:fa:ae:04:44:71:c3:ea:41:77:70:1a:88:7c:
         32:f5:15:3f:b7:e0:95:bc:5e:c2:77:8b:d9:f3:e5:03:06:c9:
         1d:18:dd:37:6c:33:c6:29:7f:5e:ff:5e:b1:b1:e0:0f:57:ff:
         3e:fe:1e:12:4c:41:c9:00:3f:4b:2e:05:83:b6:49:6b:ee:f3:
         42:1f:46:56:ca:5b:d4:88:12:3c:70:68:76:ab:0b:9c:1c:d6:
         34:79:60:00:f8:d5:71:9e:b6:46:3b:b1:7b:7c:da:c2:e3:1a:
         4a:92:12:c3:9c:df:ef:a0:6e:43:a4:92:e4:91:18:3d:c7:90:
         19:11:33:01:07:f5:81:f6:ad:6a:4c:ab:cd:78:72:28:1d:18:
         5f:93:7f:93:be:51:20:a1:1a:07:9c:0a:4a:58:36:8f:8f:0b:
         fb:75:1a:85:42:4c:36:e9:0c:ac:6e:0d:69:f2:d9:66:fb:1e:
         d7:29:aa:75:da:2b:86:3d:61:f3:07:fe:f8:eb:3e:83:41:46:
         69:00:c7:b7
-----BEGIN CERTIFICATE-----
MIIDWDCCAkACAQEwDQYJKoZIhvcNAQELBQAwbzELMAkGA1UEBhMCREUxCzAJBgNV
BAgMAk5XMRIwEAYDVQQHDAlTdGVpbmZ1cnQxFDASBgNVBAoMC0ZILU11ZW5zdGVy
MQ4wDAYDVQQLDAVOUExBQjEZMBcGA1UEAwwQZHRscy1jYS5ucGxhYi5kZTAgFw0y
MjA2MDUyMjE4MTZaGA8zMDIxMTAwNjIyMTgxNlowczELMAkGA1UEBhMCREUxCzAJ
BgNVBAgMAk5XMRIwEAYDVQQHDAlTdGVpbmZ1cnQxFDASBgNVBAoMC0ZILU11ZW5z
dGVyMQ4wDAYDVQQLDAVOUExBQjEdMBsGA1UEAwwUZHRscy1zZXJ2ZXIubnBsYWIu
ZGUwggEiMA0GCSqGSIb3DQEBAQUAA4IBDwAwggEKAoIBAQC56EDrpUZbzevy8pIr
2gY4mIYI95Tg8Omr8xB60thOfAOveSayOS8cnjg+q5F/u52L8fffPrTVVq+JWYOr
K1iUgwlYr5CXHZClQWYQAkB0D65tcgZ4MoUulQfwIVxpiYMnAAljrCe7/ahxWBif
VBR+CpXO7krpBbFcLvtOUSzf3Bw4NF/iPfl2yvbGBS2HypHw5ZGTUfWbOneaBm9K
CdwXGpZayl9QPu++Zjaqd/F4hI7l4+6FpWNo/3+mwTtHdGotV8yIubH3z0r7KPAc
SYJXR5aK8Jmriaob0804CALwARyjIvYEkMzdis9VjwoJiYRKVGyzVKzd2+ipFO3W
2QKfAgMBAAEwDQYJKoZIhvcNAQELBQADggEBAJxF0ZUOdrFKnrBtAR2SS/iF/QWA
kWxYxPmHsqKm7m8yYe2ZoDqni6v4rQPTBZozNbBU5me7PawCGzPF+q4ERHHD6kF3
cBqIfDL1FT+34JW8XsJ3i9nz5QMGyR0Y3TdsM8Ypf17/XrGx4A9X/z7+HhJMQckA
P0suBYO2SWvu80IfRlbKW9SIEjxwaHarC5wc1jR5YAD41XGetkY7sXt82sLjGkqS
EsOc3++gbkOkkuSRGD3HkBkRMwEH9YH2rWpMq814cigdGF+Tf5O+USChGgecCkpY
No+PC/t1GoVCTDbpDKxuDWny2Wb7HtcpqnXaK4Y9YfMH/vjrPoNBRmkAx7c=
-----END CERTIFICATE-----
